Certificate:
    Data:
        Version: 3 (0x2)
        Serial Number: 1 (0x1)
    Signature Algorithm: sha256WithRSAEncryption
        Issuer: C=GB, ST=London, L=London, O=?Test PLC, OU=TEST, CN=Test Node Dev Root Cert
        Validity
            Not Before: Jun 18 14:26:56 2017 GMT
            Not After : Jun 18 14:26:56 2018 GMT
        Subject: C=GB, ST=London, L=London, O=Test , OU=TEST, CN=localhost
        Subject Public Key Info:
            Public Key Algorithm: rsaEncryption
                Public-Key: (2048 bit)
                Modulus:
                    00:a1:31:b4:86:41:f1:a6:1c:99:e9:52:f2:72:4f:
                    50:06:82:51:18:e5:0b:a4:97:3e:2d:3e:c6:2a:59:
                    18:10:8b:fc:1b:27:58:67:5d:c9:6e:79:fc:70:fc:
                    4b:06:8c:17:be:85:20:d6:2c:d2:91:4b:ac:4a:53:
                    45:7a:8c:01:7a:08:0e:6b:42:cf:ea:f0:54:95:e1:
                    ff:f4:83:6a:e7:aa:89:53:6c:ae:c3:45:82:ce:0f:
                    f1:07:0b:4d:bd:00:b1:d1:96:cb:77:6a:33:e7:68:
                    e1:62:70:a3:cf:93:ae:bf:f5:12:a3:4d:f2:b9:df:
                    b1:fc:43:cd:a7:f5:d4:91:3f:b4:74:df:27:f2:7f:
                    af:ac:11:41:ab:4b:5c:20:35:f1:81:73:ad:6a:32:
                    5a:39:32:1e:87:e2:bc:a5:1a:00:e8:4b:6c:d2:59:
                    96:1c:2f:c7:31:7b:07:53:81:71:eb:2e:06:5c:cc:
                    87:3d:22:2d:f3:1f:15:58:f2:8c:0f:e3:03:46:d0:
                    95:64:b1:6b:cc:8d:3e:8b:7a:a3:17:2b:99:16:5a:
                    3e:b5:e3:17:5a:ca:aa:a7:24:53:8c:51:cf:66:70:
                    92:03:cf:44:52:d8:9e:66:84:6e:6d:ea:83:64:2e:
                    3b:d1:81:49:0b:ff:3f:72:0a:d7:4f:2f:64:b0:d4:
                    09:3d
                Exponent: 65537 (0x10001)
        X509v3 extensions:
            X509v3 Subject Key Identifier: 
                F2:21:73:69:C0:A8:E4:F4:CC:91:3A:3A:16:35:19:9B:A8:A7:C1:7B
            X509v3 Authority Key Identifier: 
                keyid:C8:56:A6:E9:D4:2A:DF:19:49:80:E9:AD:60:6B:15:31:D0:B0:F4:BC

            X509v3 Basic Constraints: 
                CA:FALSE
            X509v3 Key Usage: 
                Digital Signature, Key Encipherment
    Signature Algorithm: sha256WithRSAEncryption
         ab:b7:10:ff:f8:a3:f5:61:75:a2:37:e8:b5:9d:24:c7:f5:10:
         3e:3d:d9:4a:87:ec:b2:63:5c:77:db:64:ec:3d:5a:eb:d2:77:
         9b:c3:fa:4e:3e:66:6e:70:68:22:25:db:e6:21:c0:f2:d6:41:
         f0:4b:65:8e:92:d4:24:68:66:9f:e0:a3:b8:3e:df:02:33:24:
         e6:e0:5c:08:9c:93:46:ed:e6:c4:58:0f:57:ce:e2:dc:ea:dc:
         2e:a3:1f:94:05:ca:c0:2b:08:0e:b9:a2:5f:6f:db:ff:68:6c:
         11:3d:a4:ee:21:1d:1e:47:c6:13:fe:05:16:d7:18:0b:37:95:
         dd:e9:53:50:12:09:39:f2:70:66:88:3e:33:16:d1:e6:6b:b1:
         e9:f1:ba:77:27:4c:a5:b4:31:6e:17:a4:b2:1e:ee:27:a2:6e:
         bb:d4:cd:ec:ba:55:18:a2:68:7a:59:4c:8d:39:8e:c2:6e:3a:
         48:fd:30:16:ab:91:de:ea:88:63:62:73:19:76:be:b9:01:70:
         70:c3:3c:97:07:e0:38:a3:ac:59:d7:37:d8:1e:9e:18:33:57:
         70:c1:a6:92:75:68:06:50:87:87:0f:7d:4e:62:46:48:ee:18:
         4e:8b:06:91:e1:b2:c8:37:9f:28:92:ce:ef:09:be:4a:82:92:
         ef:d9:65:76
-----BEGIN CERTIFICATE-----
MIIDqzCCApOgAwIBAgIBATANBgkqhkiG9w0BAQsFADB0MQswCQYDVQQGEwJHQjEP
MA0GA1UECAwGTG9uZG9uMQ8wDQYDVQQHDAZMb25kb24xEjAQBgNVBAoMCT9UZXN0
IFBMQzENMAsGA1UECwwEVEVTVDEgMB4GA1UEAwwXVGVzdCBOb2RlIERldiBSb290
IENlcnQwHhcNMTcwNjE4MTQyNjU2WhcNMTgwNjE4MTQyNjU2WjBiMQswCQYDVQQG
EwJHQjEPMA0GA1UECAwGTG9uZG9uMQ8wDQYDVQQHDAZMb25kb24xDjAMBgNVBAoM
BVRlc3QgMQ0wCwYDVQQLDARURVNUMRIwEAYDVQQDDAlsb2NhbGhvc3QwggEiMA0G
CSqGSIb3DQEBAQUAA4IBDwAwggEKAoIBAQChMbSGQfGmHJnpUvJyT1AGglEY5Quk
lz4tPsYqWRgQi/wbJ1hnXcluefxw/EsGjBe+hSDWLNKRS6xKU0V6jAF6CA5rQs/q
8FSV4f/0g2rnqolTbK7DRYLOD/EHC029ALHRlst3ajPnaOFicKPPk66/9RKjTfK5
37H8Q82n9dSRP7R03yfyf6+sEUGrS1wgNfGBc61qMlo5Mh6H4rylGgDoS2zSWZYc
L8cxewdTgXHrLgZczIc9Ii3zHxVY8owP4wNG0JVksWvMjT6LeqMXK5kWWj614xda
yqqnJFOMUc9mcJIDz0RS2J5mhG5t6oNkLjvRgUkL/z9yCtdPL2Sw1Ak9AgMBAAGj
WjBYMB0GA1UdDgQWBBTyIXNpwKjk9MyROjoWNRmbqKfBezAfBgNVHSMEGDAWgBTI
Vqbp1CrfGUmA6a1gaxUx0LD0vDAJBgNVHRMEAjAAMAsGA1UdDwQEAwIFoDANBgkq
hkiG9w0BAQsFAAOCAQEAq7cQ//ij9WF1ojfotZ0kx/UQPj3ZSofssmNcd9tk7D1a
69J3m8P6Tj5mbnBoIiXb5iHA8tZB8EtljpLUJGhmn+CjuD7fAjMk5uBcCJyTRu3m
xFgPV87i3OrcLqMflAXKwCsIDrmiX2/b/2hsET2k7iEdHkfGE/4FFtcYCzeV3elT
UBIJOfJwZog+MxbR5mux6fG6dydMpbQxbheksh7uJ6Juu9TN7LpVGKJoellMjTmO
wm46SP0wFquR3uqIY2JzGXa+uQFwcMM8lwfgOKOsWdc32B6eGDNXcMGmknVoBlCH
hw99TmJGSO4YTosGkeGyyDefKJLO7wm+SoKS79lldg==
-----END CERTIFICATE-----
